; Function Attrs: mustprogress uwtable
define hidden void @_ZN2lp10int_solverC2ERNS_10lar_solverE(ptr noundef nonnull align 8 dereferenceable(32) initializes((0, 16), (24, 32)) %0, ptr noundef nonnull align 8 dereferenceable(2128) %1) unnamed_addr #4 align 2 personality ptr @__gxx_personality_v0 {
  store ptr %1, ptr %0, align 8, !tbaa !33
  %3 = getelementptr inbounds nuw i8, ptr %0, i64 8
  %4 = getelementptr inbounds nuw i8, ptr %1, i64 488
  store ptr %4, ptr %3, align 8, !tbaa !35
  %5 = getelementptr inbounds nuw i8, ptr %0, i64 24
  store ptr null, ptr %5, align 8, !tbaa !37
  %6 = invoke noalias noundef ptr @_ZN6memory8allocateEm(i64 noundef 488)
          to label %7 unwind label %12

7:                                                ; preds = %2
  invoke void @_ZN2lp10int_solver3impC2ERS0_(ptr noundef nonnull align 8 dereferenceable(484) %6, ptr noundef nonnull align 8 dereferenceable(32) %0)
          to label %8 unwind label %12

8:                                                ; preds = %7
  %9 = getelementptr inbounds nuw i8, ptr %0, i64 16
  store ptr %6, ptr %9, align 8, !tbaa !40
  %10 = load ptr, ptr %0, align 8, !tbaa !43
  %11 = getelementptr inbounds nuw i8, ptr %10, i64 1240
  store ptr %0, ptr %11, align 8, !tbaa !44
  ret void

12:                                               ; preds = %7, %2
  %13 = landingpad { ptr, i32 }
          cleanup
  tail call void @_ZN6vectorIN2lp8equalityELb1EjED2Ev(ptr noundef nonnull align 8 dereferenceable(8) %5) #25
  resume { ptr, i32 } %13
}